target datalayout = "e-m:e-p270:32:32-p271:32:32-p272:64:64-i64:64-i128:128-f80:128-n8:16:32:64-S128"
target triple = "x86_64-pc-linux-gnu"

%class.C2Access = type <{ ptr, i64, i8, [7 x i8], ptr, ptr, ptr, i8, [7 x i8] }>

; Function Attrs: mustprogress nounwind uwtable
define linkonce_odr hidden noundef i32 @_ZN9StoreNode20release_if_referenceE9BasicType(i8 noundef zeroext %0) #1 comdat align 2 {
  %2 = alloca i8, align 1
  %3 = alloca i32, align 4
  store i8 %0, ptr %2, align 1
  %4 = load i8, ptr %2, align 1
  %5 = zext i8 %4 to i32
  %6 = icmp eq i32 %5, 13
  br i1 %6, label %15, label %7

7:                                                ; preds = %1
  %8 = load i8, ptr %2, align 1
  %9 = zext i8 %8 to i32
  %10 = icmp eq i32 %9, 15
  br i1 %10, label %15, label %11

11:                                               ; preds = %7
  %12 = load i8, ptr %2, align 1
  %13 = zext i8 %12 to i32
  %14 = icmp eq i32 %13, 12
  br label %15

15:                                               ; preds = %11, %7, %1
  %16 = phi i1 [ true, %7 ], [ true, %1 ], [ %14, %11 ]
  %17 = select i1 %16, i32 2, i32 0
  store i32 %17, ptr %3, align 4
  %18 = load i32, ptr %3, align 4
  ret i32 %18
}

; Function Attrs: mustprogress nounwind uwtable
define hidden noundef i32 @_ZNK8C2Access11mem_node_moEv(ptr noundef nonnull align 8 dereferenceable(49) %0) #1 align 2 {
  %2 = alloca i32, align 4
  %3 = alloca ptr, align 8
  %4 = alloca i8, align 1
  %5 = alloca i8, align 1
  store ptr %0, ptr %3, align 8
  %6 = load ptr, ptr %3, align 8
  %7 = getelementptr inbounds %class.C2Access, ptr %6, i32 0, i32 1
  %8 = load i64, ptr %7, align 8
  %9 = and i64 %8, 137438953472
  %10 = icmp ne i64 %9, 0
  %11 = zext i1 %10 to i8
  store i8 %11, ptr %4, align 1
  %12 = getelementptr inbounds %class.C2Access, ptr %6, i32 0, i32 1
  %13 = load i64, ptr %12, align 8
  %14 = and i64 %13, 274877906944
  %15 = icmp ne i64 %14, 0
  %16 = zext i1 %15 to i8
  store i8 %16, ptr %5, align 1
  %17 = getelementptr inbounds %class.C2Access, ptr %6, i32 0, i32 1
  %18 = load i64, ptr %17, align 8
  %19 = and i64 %18, 1024
  %20 = icmp ne i64 %19, 0
  br i1 %20, label %21, label %33

21:                                               ; preds = %1
  %22 = load i8, ptr %4, align 1
  %23 = trunc i8 %22 to i1
  br i1 %23, label %24, label %28

24:                                               ; preds = %21
  %25 = load i8, ptr %5, align 1
  %26 = trunc i8 %25 to i1
  br i1 %26, label %27, label %28

27:                                               ; preds = %24
  store i32 3, ptr %2, align 4
  br label %53

28:                                               ; preds = %24, %21
  %29 = load i8, ptr %4, align 1
  %30 = trunc i8 %29 to i1
  br i1 %30, label %31, label %32

31:                                               ; preds = %28
  store i32 2, ptr %2, align 4
  br label %53

32:                                               ; preds = %28
  store i32 1, ptr %2, align 4
  br label %53

33:                                               ; preds = %1
  %34 = getelementptr inbounds %class.C2Access, ptr %6, i32 0, i32 1
  %35 = load i64, ptr %34, align 8
  %36 = and i64 %35, 512
  %37 = icmp ne i64 %36, 0
  br i1 %37, label %38, label %39

38:                                               ; preds = %33
  store i32 2, ptr %2, align 4
  br label %53

39:                                               ; preds = %33
  %40 = getelementptr inbounds %class.C2Access, ptr %6, i32 0, i32 1
  %41 = load i64, ptr %40, align 8
  %42 = and i64 %41, 256
  %43 = icmp ne i64 %42, 0
  br i1 %43, label %44, label %45

44:                                               ; preds = %39
  store i32 1, ptr %2, align 4
  br label %53

45:                                               ; preds = %39
  %46 = load i8, ptr %4, align 1
  %47 = trunc i8 %46 to i1
  br i1 %47, label %48, label %52

48:                                               ; preds = %45
  %49 = getelementptr inbounds %class.C2Access, ptr %6, i32 0, i32 2
  %50 = load i8, ptr %49, align 8
  %51 = call noundef i32 @_ZN9StoreNode20release_if_referenceE9BasicType(i8 noundef zeroext %50)
  store i32 %51, ptr %2, align 4
  br label %53

52:                                               ; preds = %45
  store i32 0, ptr %2, align 4
  br label %53

53:                                               ; preds = %52, %48, %44, %38, %32, %31, %27
  %54 = load i32, ptr %2, align 4
  ret i32 %54
}