; Function Attrs: mustprogress nofree norecurse nosync nounwind willreturn memory(argmem: read) uwtable
define hidden noundef i32 @_ZNK8C2Access11mem_node_moEv(ptr nocapture noundef nonnull readonly align 8 dereferenceable(49) %0) local_unnamed_addr #6 align 2 {
  %2 = getelementptr inbounds i8, ptr %0, i64 8
  %3 = load i64, ptr %2, align 8
  %4 = and i64 %3, 1024
  %.not6 = icmp eq i64 %4, 0
  br i1 %.not6, label %8, label %5

5:                                                ; preds = %1
  %6 = and i64 %3, 137438953472
  %.not = icmp eq i64 %6, 0
  %7 = and i64 %3, 412316860416
  %brmerge.not = icmp eq i64 %7, 412316860416
  %. = select i1 %.not, i32 1, i32 2
  %spec.select = select i1 %brmerge.not, i32 3, i32 %.
  br label %21

8:                                                ; preds = %1
  %9 = and i64 %3, 512
  %.not7 = icmp eq i64 %9, 0
  br i1 %.not7, label %10, label %21

10:                                               ; preds = %8
  %11 = and i64 %3, 137438953728
  %brmerge9.not = icmp eq i64 %11, 137438953472
  %12 = trunc i64 %3 to i32
  %13 = lshr i32 %12, 8
  %.mux = and i32 %13, 1
  br i1 %brmerge9.not, label %14, label %21

14:                                               ; preds = %10
  %15 = getelementptr inbounds i8, ptr %0, i64 16
  %16 = load i8, ptr %15, align 8
  %17 = and i8 %16, -3
  %or.cond.i = icmp eq i8 %17, 13
  %18 = icmp eq i8 %16, 12
  %19 = or i1 %18, %or.cond.i
  %20 = select i1 %19, i32 2, i32 0
  br label %21

21:                                               ; preds = %5, %10, %8, %14
  %.0 = phi i32 [ %20, %14 ], [ 2, %8 ], [ %.mux, %10 ], [ %spec.select, %5 ]
  ret i32 %.0
}